target datalayout = "e-m:e-p270:32:32-p271:32:32-p272:64:64-i64:64-i128:128-f80:128-n8:16:32:64-S128"
target triple = "x86_64-pc-linux-gnu"

%struct.Vec_Wrd_t_ = type { i32, i32, ptr }
%struct.Supp_Man_t_ = type { i32, i32, i32, i32, ptr, ptr, ptr, ptr, ptr, ptr, [2 x ptr], [2 x ptr], [2 x ptr], ptr, ptr, ptr, ptr, ptr, ptr, ptr, ptr, ptr, ptr, ptr, ptr, ptr }
%struct.Vec_Ptr_t_ = type { i32, i32, ptr }

; Function Attrs: inlinehint nounwind uwtable
define internal void @Vec_PtrClear(ptr noundef %0) #2 {
  %2 = alloca ptr, align 8
  store ptr %0, ptr %2, align 8, !tbaa !82
  %3 = load ptr, ptr %2, align 8, !tbaa !82
  %4 = getelementptr inbounds nuw %struct.Vec_Ptr_t_, ptr %3, i32 0, i32 1
  store i32 0, ptr %4, align 4, !tbaa !83
  ret void
}

; Function Attrs: inlinehint nounwind uwtable
define internal void @Vec_WrdFreeP(ptr noundef %0) #2 {
  %2 = alloca ptr, align 8
  store ptr %0, ptr %2, align 8, !tbaa !95
  %3 = load ptr, ptr %2, align 8, !tbaa !95
  %4 = load ptr, ptr %3, align 8, !tbaa !3
  %5 = icmp eq ptr %4, null
  br i1 %5, label %6, label %7

6:                                                ; preds = %1
  br label %32

7:                                                ; preds = %1
  %8 = load ptr, ptr %2, align 8, !tbaa !95
  %9 = load ptr, ptr %8, align 8, !tbaa !3
  %10 = getelementptr inbounds nuw %struct.Vec_Wrd_t_, ptr %9, i32 0, i32 2
  %11 = load ptr, ptr %10, align 8, !tbaa !16
  %12 = icmp ne ptr %11, null
  br i1 %12, label %13, label %21

13:                                               ; preds = %7
  %14 = load ptr, ptr %2, align 8, !tbaa !95
  %15 = load ptr, ptr %14, align 8, !tbaa !3
  %16 = getelementptr inbounds nuw %struct.Vec_Wrd_t_, ptr %15, i32 0, i32 2
  %17 = load ptr, ptr %16, align 8, !tbaa !16
  call void @free(ptr noundef %17) #15
  %18 = load ptr, ptr %2, align 8, !tbaa !95
  %19 = load ptr, ptr %18, align 8, !tbaa !3
  %20 = getelementptr inbounds nuw %struct.Vec_Wrd_t_, ptr %19, i32 0, i32 2
  store ptr null, ptr %20, align 8, !tbaa !16
  br label %22

21:                                               ; preds = %7
  br label %22

22:                                               ; preds = %21, %13
  %23 = load ptr, ptr %2, align 8, !tbaa !95
  %24 = load ptr, ptr %23, align 8, !tbaa !3
  %25 = icmp ne ptr %24, null
  br i1 %25, label %26, label %30

26:                                               ; preds = %22
  %27 = load ptr, ptr %2, align 8, !tbaa !95
  %28 = load ptr, ptr %27, align 8, !tbaa !3
  call void @free(ptr noundef %28) #15
  %29 = load ptr, ptr %2, align 8, !tbaa !95
  store ptr null, ptr %29, align 8, !tbaa !3
  br label %31

30:                                               ; preds = %22
  br label %31

31:                                               ; preds = %30, %26
  br label %32

32:                                               ; preds = %31, %6
  ret void
}

; Function Attrs: inlinehint nounwind uwtable
define internal ptr @Vec_PtrEntry(ptr noundef %0, i32 noundef %1) #2 {
  %3 = alloca ptr, align 8
  %4 = alloca i32, align 4
  store ptr %0, ptr %3, align 8, !tbaa !82
  store i32 %1, ptr %4, align 4, !tbaa !8
  %5 = load ptr, ptr %3, align 8, !tbaa !82
  %6 = getelementptr inbounds nuw %struct.Vec_Ptr_t_, ptr %5, i32 0, i32 2
  %7 = load ptr, ptr %6, align 8, !tbaa !86
  %8 = load i32, ptr %4, align 4, !tbaa !8
  %9 = sext i32 %8 to i64
  %10 = getelementptr inbounds ptr, ptr %7, i64 %9
  %11 = load ptr, ptr %10, align 8, !tbaa !94
  ret ptr %11
}

; Function Attrs: inlinehint nounwind uwtable
define internal i32 @Vec_PtrSize(ptr noundef %0) #2 {
  %2 = alloca ptr, align 8
  store ptr %0, ptr %2, align 8, !tbaa !82
  %3 = load ptr, ptr %2, align 8, !tbaa !82
  %4 = getelementptr inbounds nuw %struct.Vec_Ptr_t_, ptr %3, i32 0, i32 1
  %5 = load i32, ptr %4, align 4, !tbaa !83
  ret i32 %5
}

; Function Attrs: nounwind uwtable
define void @Supp_ManCleanMatrix(ptr noundef %0) #0 {
  %2 = alloca ptr, align 8
  %3 = alloca ptr, align 8
  %4 = alloca i32, align 4
  store ptr %0, ptr %2, align 8, !tbaa !24
  call void @llvm.lifetime.start.p0(i64 8, ptr %3) #15
  call void @llvm.lifetime.start.p0(i64 4, ptr %4) #15
  store i32 0, ptr %4, align 4, !tbaa !8
  br label %5

5:                                                ; preds = %21, %1
  %6 = load i32, ptr %4, align 4, !tbaa !8
  %7 = load ptr, ptr %2, align 8, !tbaa !24
  %8 = getelementptr inbounds nuw %struct.Supp_Man_t_, ptr %7, i32 0, i32 13
  %9 = load ptr, ptr %8, align 8, !tbaa !75
  %10 = call i32 @Vec_PtrSize(ptr noundef %9)
  %11 = icmp slt i32 %6, %10
  br i1 %11, label %12, label %18

12:                                               ; preds = %5
  %13 = load ptr, ptr %2, align 8, !tbaa !24
  %14 = getelementptr inbounds nuw %struct.Supp_Man_t_, ptr %13, i32 0, i32 13
  %15 = load ptr, ptr %14, align 8, !tbaa !75
  %16 = load i32, ptr %4, align 4, !tbaa !8
  %17 = call ptr @Vec_PtrEntry(ptr noundef %15, i32 noundef %16)
  store ptr %17, ptr %3, align 8, !tbaa !3
  br label %18

18:                                               ; preds = %12, %5
  %19 = phi i1 [ false, %5 ], [ true, %12 ]
  br i1 %19, label %20, label %24

20:                                               ; preds = %18
  call void @Vec_WrdFreeP(ptr noundef %3)
  br label %21

21:                                               ; preds = %20
  %22 = load i32, ptr %4, align 4, !tbaa !8
  %23 = add nsw i32 %22, 1
  store i32 %23, ptr %4, align 4, !tbaa !8
  br label %5, !llvm.loop !93

24:                                               ; preds = %18
  %25 = load ptr, ptr %2, align 8, !tbaa !24
  %26 = getelementptr inbounds nuw %struct.Supp_Man_t_, ptr %25, i32 0, i32 13
  %27 = load ptr, ptr %26, align 8, !tbaa !75
  call void @Vec_PtrClear(ptr noundef %27)
  call void @llvm.lifetime.end.p0(i64 4, ptr %4) #15
  call void @llvm.lifetime.end.p0(i64 8, ptr %3) #15
  ret void
}