; Function Attrs: nounwind uwtable
define void @Supp_ManCleanMatrix(ptr noundef readonly captures(none) %0) local_unnamed_addr #3 {
  %2 = getelementptr inbounds nuw i8, ptr %0, i64 112
  %3 = load ptr, ptr %2, align 8, !tbaa !77
  %4 = getelementptr i8, ptr %3, i64 4
  %.val8 = load i32, ptr %4, align 4, !tbaa !73
  %5 = icmp sgt i32 %.val8, 0
  br i1 %5, label %.lr.ph, label %.critedge

.lr.ph:                                           ; preds = %1, %Vec_WrdFreeP.exit
  %6 = phi ptr [ %15, %Vec_WrdFreeP.exit ], [ %3, %1 ]
  %indvars.iv = phi i64 [ %indvars.iv.next, %Vec_WrdFreeP.exit ], [ 0, %1 ]
  %7 = getelementptr i8, ptr %6, i64 8
  %.val5 = load ptr, ptr %7, align 8, !tbaa !76
  %8 = getelementptr inbounds nuw ptr, ptr %.val5, i64 %indvars.iv
  %9 = load ptr, ptr %8, align 8, !tbaa !90
  %10 = icmp eq ptr %9, null
  br i1 %10, label %Vec_WrdFreeP.exit, label %11

11:                                               ; preds = %.lr.ph
  %12 = getelementptr inbounds nuw i8, ptr %9, i64 8
  %13 = load ptr, ptr %12, align 8, !tbaa !10
  %.not.i = icmp eq ptr %13, null
  br i1 %.not.i, label %14, label %.thread.i

.thread.i:                                        ; preds = %11
  tail call void @free(ptr noundef nonnull %13) #32
  br label %14

14:                                               ; preds = %.thread.i, %11
  tail call void @free(ptr noundef nonnull %9) #32
  %.pre = load ptr, ptr %2, align 8, !tbaa !77
  br label %Vec_WrdFreeP.exit

Vec_WrdFreeP.exit:                                ; preds = %.lr.ph, %14
  %15 = phi ptr [ %6, %.lr.ph ], [ %.pre, %14 ]
  %indvars.iv.next = add nuw nsw i64 %indvars.iv, 1
  %16 = getelementptr i8, ptr %15, i64 4
  %.val = load i32, ptr %16, align 4, !tbaa !73
  %17 = sext i32 %.val to i64
  %18 = icmp slt i64 %indvars.iv.next, %17
  br i1 %18, label %.lr.ph, label %.critedge, !llvm.loop !91

.critedge:                                        ; preds = %Vec_WrdFreeP.exit, %1
  %.lcssa7 = phi ptr [ %3, %1 ], [ %15, %Vec_WrdFreeP.exit ]
  %19 = getelementptr i8, ptr %.lcssa7, i64 4
  store i32 0, ptr %19, align 4, !tbaa !73
  ret void
}